; ModuleID = '38/122.c'
source_filename = "38/122.c"
target datalayout = "e-m:e-p270:32:32-p271:32:32-p272:64:64-i64:64-f80:128-n8:16:32:64-S128"
target triple = "x86_64-pc-linux-gnu"

@.str = private unnamed_addr constant [3 x i8] c"%d\00", align 1
@.str.1 = private unnamed_addr constant [4 x i8] c"%lf\00", align 1
@.str.2 = private unnamed_addr constant [7 x i8] c"%.5lf\0A\00", align 1

; Function Attrs: noinline nounwind uwtable
define dso_local void @main() #0 {
  %1 = alloca i32, align 4
  %2 = alloca i32, align 4
  %3 = alloca [100 x double], align 16
  %4 = alloca i32, align 4
  %5 = alloca double, align 8
  %6 = alloca double, align 8
  %7 = alloca double*, align 8
  %8 = call i32 (i8*, ...) @__isoc99_scanf(i8* getelementptr inbounds ([3 x i8], [3 x i8]* @.str, i64 0, i64 0), i32* %1)
  br label %9

9:                                                ; preds = %74, %0
  %10 = load i32, i32* %1, align 4
  %11 = icmp sgt i32 %10, 0
  br i1 %11, label %12, label %77

12:                                               ; preds = %9
  %13 = call i32 (i8*, ...) @__isoc99_scanf(i8* getelementptr inbounds ([3 x i8], [3 x i8]* @.str, i64 0, i64 0), i32* %2)
  store double 0.000000e+00, double* %5, align 8
  store double 0.000000e+00, double* %6, align 8
  store i32 0, i32* %4, align 4
  br label %14

14:                                               ; preds = %24, %12
  %15 = load i32, i32* %4, align 4
  %16 = load i32, i32* %2, align 4
  %17 = sub nsw i32 %16, 1
  %18 = icmp sle i32 %15, %17
  br i1 %18, label %19, label %27

19:                                               ; preds = %14
  %20 = load i32, i32* %4, align 4
  %21 = sext i32 %20 to i64
  %22 = getelementptr inbounds [100 x double], [100 x double]* %3, i64 0, i64 %21
  %23 = call i32 (i8*, ...) @__isoc99_scanf(i8* getelementptr inbounds ([4 x i8], [4 x i8]* @.str.1, i64 0, i64 0), double* %22)
  br label %24

24:                                               ; preds = %19
  %25 = load i32, i32* %4, align 4
  %26 = add nsw i32 %25, 1
  store i32 %26, i32* %4, align 4
  br label %14

27:                                               ; preds = %14
  %28 = getelementptr inbounds [100 x double], [100 x double]* %3, i64 0, i64 0
  store double* %28, double** %7, align 8
  store i32 0, i32* %4, align 4
  br label %29

29:                                               ; preds = %55, %27
  %30 = load i32, i32* %4, align 4
  %31 = load i32, i32* %2, align 4
  %32 = sub nsw i32 %31, 1
  %33 = icmp sle i32 %30, %32
  br i1 %33, label %34, label %58

34:                                               ; preds = %29
  %35 = load double*, double** %7, align 8
  %36 = load i32, i32* %4, align 4
  %37 = sext i32 %36 to i64
  %38 = getelementptr inbounds double, double* %35, i64 %37
  %39 = load double, double* %38, align 8
  %40 = load double*, double** %7, align 8
  %41 = load i32, i32* %4, align 4
  %42 = sext i32 %41 to i64
  %43 = getelementptr inbounds double, double* %40, i64 %42
  %44 = load double, double* %43, align 8
  %45 = fmul double %39, %44
  %46 = load double, double* %5, align 8
  %47 = fadd double %46, %45
  store double %47, double* %5, align 8
  %48 = load double*, double** %7, align 8
  %49 = load i32, i32* %4, align 4
  %50 = sext i32 %49 to i64
  %51 = getelementptr inbounds double, double* %48, i64 %50
  %52 = load double, double* %51, align 8
  %53 = load double, double* %6, align 8
  %54 = fadd double %53, %52
  store double %54, double* %6, align 8
  br label %55

55:                                               ; preds = %34
  %56 = load i32, i32* %4, align 4
  %57 = add nsw i32 %56, 1
  store i32 %57, i32* %4, align 4
  br label %29

58:                                               ; preds = %29
  %59 = load i32, i32* %2, align 4
  %60 = sitofp i32 %59 to double
  %61 = load double, double* %5, align 8
  %62 = fdiv double %61, %60
  store double %62, double* %5, align 8
  %63 = load i32, i32* %2, align 4
  %64 = sitofp i32 %63 to double
  %65 = load double, double* %6, align 8
  %66 = fdiv double %65, %64
  store double %66, double* %6, align 8
  %67 = load double, double* %5, align 8
  %68 = load double, double* %6, align 8
  %69 = load double, double* %6, align 8
  %70 = fmul double %68, %69
  %71 = fsub double %67, %70
  %72 = call double @sqrt(double %71) #3
  %73 = call i32 (i8*, ...) @printf(i8* getelementptr inbounds ([7 x i8], [7 x i8]* @.str.2, i64 0, i64 0), double %72)
  br label %74

74:                                               ; preds = %58
  %75 = load i32, i32* %1, align 4
  %76 = add nsw i32 %75, -1
  store i32 %76, i32* %1, align 4
  br label %9

77:                                               ; preds = %9
  ret void
}

declare dso_local i32 @__isoc99_scanf(i8*, ...) #1

declare dso_local i32 @printf(i8*, ...) #1

; Function Attrs: nounwind
declare dso_local double @sqrt(double) #2


!llvm.module.flags = !{!0}
!llvm.ident = !{!1}

!0 = !{i32 1, !"wchar_size", i32 4}
!1 = !{!"clang version 10.0.0-4ubuntu1 "}
